target datalayout = "e-m:e-p270:32:32-p271:32:32-p272:64:64-i64:64-i128:128-f80:128-n8:16:32:64-S128"
target triple = "x86_64-pc-linux-gnu"

@SP = internal global [8 x [256 x i64]] zeroinitializer, align 16

; Function Attrs: nounwind uwtable
define internal i64 @F(i64 noundef %0, i64 noundef %1) #0 {
  %3 = alloca i64, align 8
  %4 = alloca i64, align 8
  store i64 %0, ptr %3, align 8, !tbaa !16
  store i64 %1, ptr %4, align 8, !tbaa !16
  %5 = load i64, ptr %3, align 8, !tbaa !16
  %6 = load i64, ptr %4, align 8, !tbaa !16
  %7 = xor i64 %6, %5
  store i64 %7, ptr %4, align 8, !tbaa !16
  %8 = load i64, ptr %4, align 8, !tbaa !16
  %9 = lshr i64 %8, 56
  %10 = getelementptr inbounds nuw [256 x i64], ptr @SP, i64 0, i64 %9
  %11 = load i64, ptr %10, align 8, !tbaa !16
  %12 = load i64, ptr %4, align 8, !tbaa !16
  %13 = lshr i64 %12, 48
  %14 = and i64 %13, 255
  %15 = getelementptr inbounds nuw [256 x i64], ptr getelementptr inbounds ([8 x [256 x i64]], ptr @SP, i64 0, i64 1), i64 0, i64 %14
  %16 = load i64, ptr %15, align 8, !tbaa !16
  %17 = xor i64 %11, %16
  %18 = load i64, ptr %4, align 8, !tbaa !16
  %19 = lshr i64 %18, 40
  %20 = and i64 %19, 255
  %21 = getelementptr inbounds nuw [256 x i64], ptr getelementptr inbounds ([8 x [256 x i64]], ptr @SP, i64 0, i64 2), i64 0, i64 %20
  %22 = load i64, ptr %21, align 8, !tbaa !16
  %23 = xor i64 %17, %22
  %24 = load i64, ptr %4, align 8, !tbaa !16
  %25 = lshr i64 %24, 32
  %26 = and i64 %25, 255
  %27 = getelementptr inbounds nuw [256 x i64], ptr getelementptr inbounds ([8 x [256 x i64]], ptr @SP, i64 0, i64 3), i64 0, i64 %26
  %28 = load i64, ptr %27, align 8, !tbaa !16
  %29 = xor i64 %23, %28
  %30 = load i64, ptr %4, align 8, !tbaa !16
  %31 = lshr i64 %30, 24
  %32 = and i64 %31, 255
  %33 = getelementptr inbounds nuw [256 x i64], ptr getelementptr inbounds ([8 x [256 x i64]], ptr @SP, i64 0, i64 4), i64 0, i64 %32
  %34 = load i64, ptr %33, align 8, !tbaa !16
  %35 = xor i64 %29, %34
  %36 = load i64, ptr %4, align 8, !tbaa !16
  %37 = lshr i64 %36, 16
  %38 = and i64 %37, 255
  %39 = getelementptr inbounds nuw [256 x i64], ptr getelementptr inbounds ([8 x [256 x i64]], ptr @SP, i64 0, i64 5), i64 0, i64 %38
  %40 = load i64, ptr %39, align 8, !tbaa !16
  %41 = xor i64 %35, %40
  %42 = load i64, ptr %4, align 8, !tbaa !16
  %43 = lshr i64 %42, 8
  %44 = and i64 %43, 255
  %45 = getelementptr inbounds nuw [256 x i64], ptr getelementptr inbounds ([8 x [256 x i64]], ptr @SP, i64 0, i64 6), i64 0, i64 %44
  %46 = load i64, ptr %45, align 8, !tbaa !16
  %47 = xor i64 %41, %46
  %48 = load i64, ptr %4, align 8, !tbaa !16
  %49 = and i64 %48, 255
  %50 = getelementptr inbounds nuw [256 x i64], ptr getelementptr inbounds ([8 x [256 x i64]], ptr @SP, i64 0, i64 7), i64 0, i64 %49
  %51 = load i64, ptr %50, align 8, !tbaa !16
  %52 = xor i64 %47, %51
  store i64 %52, ptr %3, align 8, !tbaa !16
  %53 = load i64, ptr %3, align 8, !tbaa !16
  ret i64 %53
}