; Function Attrs: mustprogress nofree norecurse nosync nounwind willreturn memory(read, argmem: none, inaccessiblemem: none) uwtable
define internal fastcc i64 @F(i64 noundef %0, i64 noundef %1) unnamed_addr #5 {
  %3 = xor i64 %1, %0
  %4 = lshr i64 %3, 56
  %5 = getelementptr inbounds nuw [256 x i64], ptr @SP, i64 0, i64 %4
  %6 = load i64, ptr %5, align 8, !tbaa !10
  %7 = lshr i64 %3, 48
  %8 = and i64 %7, 255
  %9 = getelementptr inbounds nuw [256 x i64], ptr getelementptr inbounds nuw (i8, ptr @SP, i64 2048), i64 0, i64 %8
  %10 = load i64, ptr %9, align 8, !tbaa !10
  %11 = xor i64 %10, %6
  %12 = lshr i64 %3, 40
  %13 = and i64 %12, 255
  %14 = getelementptr inbounds nuw [256 x i64], ptr getelementptr inbounds nuw (i8, ptr @SP, i64 4096), i64 0, i64 %13
  %15 = load i64, ptr %14, align 8, !tbaa !10
  %16 = xor i64 %11, %15
  %17 = lshr i64 %3, 32
  %18 = and i64 %17, 255
  %19 = getelementptr inbounds nuw [256 x i64], ptr getelementptr inbounds nuw (i8, ptr @SP, i64 6144), i64 0, i64 %18
  %20 = load i64, ptr %19, align 8, !tbaa !10
  %21 = xor i64 %16, %20
  %22 = lshr i64 %3, 24
  %23 = and i64 %22, 255
  %24 = getelementptr inbounds nuw [256 x i64], ptr getelementptr inbounds nuw (i8, ptr @SP, i64 8192), i64 0, i64 %23
  %25 = load i64, ptr %24, align 8, !tbaa !10
  %26 = xor i64 %21, %25
  %27 = lshr i64 %3, 16
  %28 = and i64 %27, 255
  %29 = getelementptr inbounds nuw [256 x i64], ptr getelementptr inbounds nuw (i8, ptr @SP, i64 10240), i64 0, i64 %28
  %30 = load i64, ptr %29, align 8, !tbaa !10
  %31 = xor i64 %26, %30
  %32 = lshr i64 %3, 8
  %33 = and i64 %32, 255
  %34 = getelementptr inbounds nuw [256 x i64], ptr getelementptr inbounds nuw (i8, ptr @SP, i64 12288), i64 0, i64 %33
  %35 = load i64, ptr %34, align 8, !tbaa !10
  %36 = xor i64 %31, %35
  %37 = and i64 %3, 255
  %38 = getelementptr inbounds nuw [256 x i64], ptr getelementptr inbounds nuw (i8, ptr @SP, i64 14336), i64 0, i64 %37
  %39 = load i64, ptr %38, align 8, !tbaa !10
  %40 = xor i64 %36, %39
  ret i64 %40
}